target datalayout = "e-m:e-p270:32:32-p271:32:32-p272:64:64-i64:64-i128:128-f80:128-n8:16:32:64-S128"
target triple = "x86_64-pc-linux-gnu"

; Function Attrs: nounwind uwtable
define internal double @get_len_position(double noundef %0, double noundef %1, double noundef %2) #0 {
  %4 = alloca double, align 8
  %5 = alloca double, align 8
  %6 = alloca double, align 8
  %7 = alloca double, align 8
  store double %0, ptr %5, align 8
  store double %1, ptr %6, align 8
  store double %2, ptr %7, align 8
  %8 = load double, ptr %6, align 8
  %9 = call i1 @llvm.is.fpclass.f64(double %8, i32 516)
  br i1 %9, label %26, label %10

10:                                               ; preds = %3
  %11 = load double, ptr %7, align 8
  %12 = call i1 @llvm.is.fpclass.f64(double %11, i32 516)
  br i1 %12, label %26, label %13

13:                                               ; preds = %10
  %14 = load double, ptr %5, align 8
  %15 = call i1 @llvm.is.fpclass.f64(double %14, i32 516)
  br i1 %15, label %16, label %17

16:                                               ; preds = %13
  store double 5.000000e-01, ptr %4, align 8
  br label %41

17:                                               ; preds = %13
  %18 = load double, ptr %7, align 8
  %19 = load double, ptr %5, align 8
  %20 = fsub double %18, %19
  %21 = load double, ptr %7, align 8
  %22 = load double, ptr %6, align 8
  %23 = fsub double %21, %22
  %24 = fdiv double %20, %23
  %25 = fsub double 1.000000e+00, %24
  store double %25, ptr %4, align 8
  br label %41

26:                                               ; preds = %10, %3
  %27 = load double, ptr %6, align 8
  %28 = call i1 @llvm.is.fpclass.f64(double %27, i32 516)
  br i1 %28, label %29, label %33

29:                                               ; preds = %26
  %30 = load double, ptr %7, align 8
  %31 = call i1 @llvm.is.fpclass.f64(double %30, i32 516)
  br i1 %31, label %33, label %32

32:                                               ; preds = %29
  store double 1.000000e+00, ptr %4, align 8
  br label %41

33:                                               ; preds = %29, %26
  %34 = load double, ptr %6, align 8
  %35 = call i1 @llvm.is.fpclass.f64(double %34, i32 516)
  br i1 %35, label %36, label %40

36:                                               ; preds = %33
  %37 = load double, ptr %7, align 8
  %38 = call i1 @llvm.is.fpclass.f64(double %37, i32 516)
  br i1 %38, label %39, label %40

39:                                               ; preds = %36
  store double 0.000000e+00, ptr %4, align 8
  br label %41

40:                                               ; preds = %36, %33
  store double 5.000000e-01, ptr %4, align 8
  br label %41

41:                                               ; preds = %40, %39, %32, %17, %16
  %42 = load double, ptr %4, align 8
  ret double %42
}