; Function Attrs: mustprogress nofree norecurse nosync nounwind willreturn memory(none) uwtable
define internal fastcc noundef double @get_len_position(double noundef %0, double noundef %1, double noundef %2) unnamed_addr #7 {
  %4 = tail call double @llvm.fabs.f64(double %1)
  %5 = fcmp oeq double %4, 0x7FF0000000000000
  %6 = tail call double @llvm.fabs.f64(double %2)
  %7 = fcmp oeq double %6, 0x7FF0000000000000
  %or.cond = or i1 %5, %7
  br i1 %or.cond, label %16, label %8

8:                                                ; preds = %3
  %9 = tail call double @llvm.fabs.f64(double %0)
  %10 = fcmp oeq double %9, 0x7FF0000000000000
  br i1 %10, label %19, label %11

11:                                               ; preds = %8
  %12 = fsub double %2, %0
  %13 = fsub double %2, %1
  %14 = fdiv double %12, %13
  %15 = fsub double 1.000000e+00, %14
  br label %19

16:                                               ; preds = %3
  %.not = xor i1 %5, true
  %or.cond14 = or i1 %7, %.not
  br i1 %or.cond14, label %17, label %19

17:                                               ; preds = %16
  %or.cond16 = and i1 %5, %7
  br i1 %or.cond16, label %19, label %18

18:                                               ; preds = %17
  br label %19

19:                                               ; preds = %17, %16, %8, %18, %11
  %.0 = phi double [ 5.000000e-01, %18 ], [ %15, %11 ], [ 5.000000e-01, %8 ], [ 1.000000e+00, %16 ], [ 0.000000e+00, %17 ]
  ret double %.0
}